(dp0
Vshoes02
p1
(g1
V6
p2
V/static/mieSys/ads/shoes/shoes02
p3
V1
p4
Vshoes
p5
V1
p6
tp7
sVshoes09
p8
(g8
V7
p9
V/static/mieSys/ads/shoes/shoes09
p10
V1
p11
Vshoes
p12
V2
p13
tp14
sVdigital12
p15
(g15
V2
p16
V/static/mieSys/ads/digital/digital12
p17
V1
p18
Vdigital
p19
V3
p20
tp21
sVdigital10
p22
(g22
V2
p23
V/static/mieSys/ads/digital/digital10
p24
V1
p25
Vdigital
p26
V3
p27
tp28
sVdigital11
p29
(g29
V2
p30
V/static/mieSys/ads/digital/digital11
p31
V1
p32
Vdigital
p33
V3
p34
tp35
sVshoes07
p36
(g36
V7
p37
V/static/mieSys/ads/shoes/shoes07
p38
V1
p39
Vshoes
p40
V2
p41
tp42
sVshoes06
p43
(g43
V6
p44
V/static/mieSys/ads/shoes/shoes06
p45
V0
p46
Vshoes
p47
V1
p48
tp49
sVshoes05
p50
(g50
V6
p51
V/static/mieSys/ads/shoes/shoes05
p52
V0
p53
Vshoes
p54
V1
p55
tp56
sVshoes04
p57
(g57
V6
p58
V/static/mieSys/ads/shoes/shoes04
p59
V0
p60
Vshoes
p61
V1
p62
tp63
sVskin09
p64
(g64
V5
p65
V/static/mieSys/ads/skin/skin09
p66
V0
p67
Vskin
p68
V3
p69
tp70
sVskin08
p71
(g71
V4
p72
V/static/mieSys/ads/skin/skin08
p73
V0
p74
Vskin
p75
V2
p76
tp77
sVshoes01
p78
(g78
V6
p79
V/static/mieSys/ads/shoes/shoes01
p80
V1
p81
Vshoes
p82
V1
p83
tp84
sVskin05
p85
(g85
V4
p86
V/static/mieSys/ads/skin/skin05
p87
V0
p88
Vskin
p89
V2
p90
tp91
sVskin04
p92
(g92
V3
p93
V/static/mieSys/ads/skin/skin04
p94
V0
p95
Vskin
p96
V1
p97
tp98
sVskin07
p99
(g99
V4
p100
V/static/mieSys/ads/skin/skin07
p101
V0
p102
Vskin
p103
V2
p104
tp105
sVskin06
p106
(g106
V4
p107
V/static/mieSys/ads/skin/skin06
p108
V0
p109
Vskin
p110
V2
p111
tp112
sVskin01
p113
(g113
V3
p114
V/static/mieSys/ads/skin/skin01
p115
V0
p116
Vskin
p117
V1
p118
tp119
sVskin03
p120
(g120
V3
p121
V/static/mieSys/ads/skin/skin03
p122
V0
p123
Vskin
p124
V1
p125
tp126
sVskin02
p127
(g127
V3
p128
V/static/mieSys/ads/skin/skin02
p129
V0
p130
Vskin
p131
V1
p132
tp133
sVshoes08
p134
(g134
V7
p135
V/static/mieSys/ads/shoes/shoes08
p136
V1
p137
Vshoes
p138
V2
p139
tp140
sVdigital09
p141
(g141
V2
p142
V/static/mieSys/ads/digital/digital09
p143
V1
p144
Vdigital
p145
V3
p146
tp147
sVdigital08
p148
(g148
V1
p149
V/static/mieSys/ads/digital/digital08
p150
V1
p151
Vdigital
p152
V1
p153
tp154
sVdigital01
p155
(g155
V1
p156
V/static/mieSys/ads/digital/digital01
p157
V1
p158
Vdigital
p159
V2
p160
tp161
sVshoes03
p162
(g162
V6
p163
V/static/mieSys/ads/shoes/shoes03
p164
V1
p165
Vshoes
p166
V1
p167
tp168
sVdigital03
p169
(g169
V1
p170
V/static/mieSys/ads/digital/digital03
p171
V1
p172
Vdigital
p173
V2
p174
tp175
sVdigital02
p176
(g176
V1
p177
V/static/mieSys/ads/digital/digital02
p178
V1
p179
Vdigital
p180
V2
p181
tp182
sVdigital05
p183
(g183
V1
p184
V/static/mieSys/ads/digital/digital05
p185
V1
p186
Vdigital
p187
V1
p188
tp189
sVdigital04
p190
(g190
V1
p191
V/static/mieSys/ads/digital/digital04
p192
V1
p193
Vdigital
p194
V2
p195
tp196
sVdigital07
p197
(g197
V1
p198
V/static/mieSys/ads/digital/digital07
p199
V1
p200
Vdigital
p201
V1
p202
tp203
sVdigital06
p204
(g204
V1
p205
V/static/mieSys/ads/digital/digital06
p206
V1
p207
Vdigital
p208
V1
p209
tp210
sVshoes10
p211
(g211
V7
p212
V/static/mieSys/ads/shoes/shoes10
p213
V0
p214
Vshoes
p215
V2
p216
tp217
sVshoes11
p218
(g218
V7
p219
V/static/mieSys/ads/shoes/shoes11
p220
V0
p221
Vshoes
p222
V2
p223
tp224
sVshoes12
p225
(g225
V7
p226
V/static/mieSys/ads/shoes/shoes12
p227
V0
p228
Vshoes
p229
V2
p230
tp231
sVskin12
p232
(g232
V5
p233
V/static/mieSys/ads/skin/skin12
p234
V0
p235
Vskin
p236
V3
p237
tp238
sVskin10
p239
(g239
V5
p240
V/static/mieSys/ads/skin/skin10
p241
V0
p242
Vskin
p243
V3
p244
tp245
sVskin11
p246
(g246
V5
p247
V/static/mieSys/ads/skin/skin11
p248
V0
p249
Vskin
p250
V3
p251
tp252
s.